target datalayout = "e-m:e-p270:32:32-p271:32:32-p272:64:64-i64:64-i128:128-f80:128-n8:16:32:64-S128"
target triple = "x86_64-pc-linux-gnu"

%struct.mbedtls_asn1_named_data = type { %struct.mbedtls_asn1_buf, %struct.mbedtls_asn1_buf, ptr, i8 }
%struct.mbedtls_asn1_buf = type { i32, i64, ptr }

; Function Attrs: nounwind uwtable
define internal i32 @x509_memcasecmp(ptr noundef %0, ptr noundef %1, i64 noundef %2) #0 {
  %4 = alloca i32, align 4
  %5 = alloca ptr, align 8
  %6 = alloca ptr, align 8
  %7 = alloca i64, align 8
  %8 = alloca i64, align 8
  %9 = alloca i8, align 1
  %10 = alloca ptr, align 8
  %11 = alloca ptr, align 8
  %12 = alloca i32, align 4
  store ptr %0, ptr %5, align 8, !tbaa !14
  store ptr %1, ptr %6, align 8, !tbaa !14
  store i64 %2, ptr %7, align 8, !tbaa !10
  call void @llvm.lifetime.start.p0(i64 8, ptr %8) #10
  call void @llvm.lifetime.start.p0(i64 1, ptr %9) #10
  call void @llvm.lifetime.start.p0(i64 8, ptr %10) #10
  %13 = load ptr, ptr %5, align 8, !tbaa !14
  store ptr %13, ptr %10, align 8, !tbaa !8
  call void @llvm.lifetime.start.p0(i64 8, ptr %11) #10
  %14 = load ptr, ptr %6, align 8, !tbaa !14
  store ptr %14, ptr %11, align 8, !tbaa !8
  store i64 0, ptr %8, align 8, !tbaa !10
  br label %15

15:                                               ; preds = %70, %3
  %16 = load i64, ptr %8, align 8, !tbaa !10
  %17 = load i64, ptr %7, align 8, !tbaa !10
  %18 = icmp ult i64 %16, %17
  br i1 %18, label %19, label %73

19:                                               ; preds = %15
  %20 = load ptr, ptr %10, align 8, !tbaa !8
  %21 = load i64, ptr %8, align 8, !tbaa !10
  %22 = getelementptr inbounds nuw i8, ptr %20, i64 %21
  %23 = load i8, ptr %22, align 1, !tbaa !29
  %24 = zext i8 %23 to i32
  %25 = load ptr, ptr %11, align 8, !tbaa !8
  %26 = load i64, ptr %8, align 8, !tbaa !10
  %27 = getelementptr inbounds nuw i8, ptr %25, i64 %26
  %28 = load i8, ptr %27, align 1, !tbaa !29
  %29 = zext i8 %28 to i32
  %30 = xor i32 %24, %29
  %31 = trunc i32 %30 to i8
  store i8 %31, ptr %9, align 1, !tbaa !29
  %32 = load i8, ptr %9, align 1, !tbaa !29
  %33 = zext i8 %32 to i32
  %34 = icmp eq i32 %33, 0
  br i1 %34, label %35, label %36

35:                                               ; preds = %19
  br label %70

36:                                               ; preds = %19
  %37 = load i8, ptr %9, align 1, !tbaa !29
  %38 = zext i8 %37 to i32
  %39 = icmp eq i32 %38, 32
  br i1 %39, label %40, label %69

40:                                               ; preds = %36
  %41 = load ptr, ptr %10, align 8, !tbaa !8
  %42 = load i64, ptr %8, align 8, !tbaa !10
  %43 = getelementptr inbounds nuw i8, ptr %41, i64 %42
  %44 = load i8, ptr %43, align 1, !tbaa !29
  %45 = zext i8 %44 to i32
  %46 = icmp sge i32 %45, 97
  br i1 %46, label %47, label %54

47:                                               ; preds = %40
  %48 = load ptr, ptr %10, align 8, !tbaa !8
  %49 = load i64, ptr %8, align 8, !tbaa !10
  %50 = getelementptr inbounds nuw i8, ptr %48, i64 %49
  %51 = load i8, ptr %50, align 1, !tbaa !29
  %52 = zext i8 %51 to i32
  %53 = icmp sle i32 %52, 122
  br i1 %53, label %68, label %54

54:                                               ; preds = %47, %40
  %55 = load ptr, ptr %10, align 8, !tbaa !8
  %56 = load i64, ptr %8, align 8, !tbaa !10
  %57 = getelementptr inbounds nuw i8, ptr %55, i64 %56
  %58 = load i8, ptr %57, align 1, !tbaa !29
  %59 = zext i8 %58 to i32
  %60 = icmp sge i32 %59, 65
  br i1 %60, label %61, label %69

61:                                               ; preds = %54
  %62 = load ptr, ptr %10, align 8, !tbaa !8
  %63 = load i64, ptr %8, align 8, !tbaa !10
  %64 = getelementptr inbounds nuw i8, ptr %62, i64 %63
  %65 = load i8, ptr %64, align 1, !tbaa !29
  %66 = zext i8 %65 to i32
  %67 = icmp sle i32 %66, 90
  br i1 %67, label %68, label %69

68:                                               ; preds = %61, %47
  br label %70

69:                                               ; preds = %61, %54, %36
  store i32 -1, ptr %4, align 4
  store i32 1, ptr %12, align 4
  br label %74

70:                                               ; preds = %68, %35
  %71 = load i64, ptr %8, align 8, !tbaa !10
  %72 = add i64 %71, 1
  store i64 %72, ptr %8, align 8, !tbaa !10
  br label %15, !llvm.loop !156

73:                                               ; preds = %15
  store i32 0, ptr %4, align 4
  store i32 1, ptr %12, align 4
  br label %74

74:                                               ; preds = %73, %69
  call void @llvm.lifetime.end.p0(i64 8, ptr %11) #10
  call void @llvm.lifetime.end.p0(i64 8, ptr %10) #10
  call void @llvm.lifetime.end.p0(i64 1, ptr %9) #10
  call void @llvm.lifetime.end.p0(i64 8, ptr %8) #10
  %75 = load i32, ptr %4, align 4
  ret i32 %75
}

; Function Attrs: nounwind uwtable
define internal i32 @x509_string_cmp(ptr noundef %0, ptr noundef %1) #0 {
  %3 = alloca i32, align 4
  %4 = alloca ptr, align 8
  %5 = alloca ptr, align 8
  store ptr %0, ptr %4, align 8, !tbaa !77
  store ptr %1, ptr %5, align 8, !tbaa !77
  %6 = load ptr, ptr %4, align 8, !tbaa !77
  %7 = getelementptr inbounds nuw %struct.mbedtls_asn1_buf, ptr %6, i32 0, i32 0
  %8 = load i32, ptr %7, align 8, !tbaa !119
  %9 = load ptr, ptr %5, align 8, !tbaa !77
  %10 = getelementptr inbounds nuw %struct.mbedtls_asn1_buf, ptr %9, i32 0, i32 0
  %11 = load i32, ptr %10, align 8, !tbaa !119
  %12 = icmp eq i32 %8, %11
  br i1 %12, label %13, label %34

13:                                               ; preds = %2
  %14 = load ptr, ptr %4, align 8, !tbaa !77
  %15 = getelementptr inbounds nuw %struct.mbedtls_asn1_buf, ptr %14, i32 0, i32 1
  %16 = load i64, ptr %15, align 8, !tbaa !79
  %17 = load ptr, ptr %5, align 8, !tbaa !77
  %18 = getelementptr inbounds nuw %struct.mbedtls_asn1_buf, ptr %17, i32 0, i32 1
  %19 = load i64, ptr %18, align 8, !tbaa !79
  %20 = icmp eq i64 %16, %19
  br i1 %20, label %21, label %34

21:                                               ; preds = %13
  %22 = load ptr, ptr %4, align 8, !tbaa !77
  %23 = getelementptr inbounds nuw %struct.mbedtls_asn1_buf, ptr %22, i32 0, i32 2
  %24 = load ptr, ptr %23, align 8, !tbaa !80
  %25 = load ptr, ptr %5, align 8, !tbaa !77
  %26 = getelementptr inbounds nuw %struct.mbedtls_asn1_buf, ptr %25, i32 0, i32 2
  %27 = load ptr, ptr %26, align 8, !tbaa !80
  %28 = load ptr, ptr %5, align 8, !tbaa !77
  %29 = getelementptr inbounds nuw %struct.mbedtls_asn1_buf, ptr %28, i32 0, i32 1
  %30 = load i64, ptr %29, align 8, !tbaa !79
  %31 = call i32 @memcmp(ptr noundef %24, ptr noundef %27, i64 noundef %30) #12
  %32 = icmp eq i32 %31, 0
  br i1 %32, label %33, label %34

33:                                               ; preds = %21
  store i32 0, ptr %3, align 4
  br label %76

34:                                               ; preds = %21, %13, %2
  %35 = load ptr, ptr %4, align 8, !tbaa !77
  %36 = getelementptr inbounds nuw %struct.mbedtls_asn1_buf, ptr %35, i32 0, i32 0
  %37 = load i32, ptr %36, align 8, !tbaa !119
  %38 = icmp eq i32 %37, 12
  br i1 %38, label %44, label %39

39:                                               ; preds = %34
  %40 = load ptr, ptr %4, align 8, !tbaa !77
  %41 = getelementptr inbounds nuw %struct.mbedtls_asn1_buf, ptr %40, i32 0, i32 0
  %42 = load i32, ptr %41, align 8, !tbaa !119
  %43 = icmp eq i32 %42, 19
  br i1 %43, label %44, label %75

44:                                               ; preds = %39, %34
  %45 = load ptr, ptr %5, align 8, !tbaa !77
  %46 = getelementptr inbounds nuw %struct.mbedtls_asn1_buf, ptr %45, i32 0, i32 0
  %47 = load i32, ptr %46, align 8, !tbaa !119
  %48 = icmp eq i32 %47, 12
  br i1 %48, label %54, label %49

49:                                               ; preds = %44
  %50 = load ptr, ptr %5, align 8, !tbaa !77
  %51 = getelementptr inbounds nuw %struct.mbedtls_asn1_buf, ptr %50, i32 0, i32 0
  %52 = load i32, ptr %51, align 8, !tbaa !119
  %53 = icmp eq i32 %52, 19
  br i1 %53, label %54, label %75

54:                                               ; preds = %49, %44
  %55 = load ptr, ptr %4, align 8, !tbaa !77
  %56 = getelementptr inbounds nuw %struct.mbedtls_asn1_buf, ptr %55, i32 0, i32 1
  %57 = load i64, ptr %56, align 8, !tbaa !79
  %58 = load ptr, ptr %5, align 8, !tbaa !77
  %59 = getelementptr inbounds nuw %struct.mbedtls_asn1_buf, ptr %58, i32 0, i32 1
  %60 = load i64, ptr %59, align 8, !tbaa !79
  %61 = icmp eq i64 %57, %60
  br i1 %61, label %62, label %75

62:                                               ; preds = %54
  %63 = load ptr, ptr %4, align 8, !tbaa !77
  %64 = getelementptr inbounds nuw %struct.mbedtls_asn1_buf, ptr %63, i32 0, i32 2
  %65 = load ptr, ptr %64, align 8, !tbaa !80
  %66 = load ptr, ptr %5, align 8, !tbaa !77
  %67 = getelementptr inbounds nuw %struct.mbedtls_asn1_buf, ptr %66, i32 0, i32 2
  %68 = load ptr, ptr %67, align 8, !tbaa !80
  %69 = load ptr, ptr %5, align 8, !tbaa !77
  %70 = getelementptr inbounds nuw %struct.mbedtls_asn1_buf, ptr %69, i32 0, i32 1
  %71 = load i64, ptr %70, align 8, !tbaa !79
  %72 = call i32 @x509_memcasecmp(ptr noundef %65, ptr noundef %68, i64 noundef %71)
  %73 = icmp eq i32 %72, 0
  br i1 %73, label %74, label %75

74:                                               ; preds = %62
  store i32 0, ptr %3, align 4
  br label %76

75:                                               ; preds = %62, %54, %49, %39
  store i32 -1, ptr %3, align 4
  br label %76

76:                                               ; preds = %75, %74, %33
  %77 = load i32, ptr %3, align 4
  ret i32 %77
}

; Function Attrs: nounwind uwtable
define internal i32 @x509_name_cmp(ptr noundef %0, ptr noundef %1) #0 {
  %3 = alloca i32, align 4
  %4 = alloca ptr, align 8
  %5 = alloca ptr, align 8
  store ptr %0, ptr %4, align 8, !tbaa !139
  store ptr %1, ptr %5, align 8, !tbaa !139
  br label %6

6:                                                ; preds = %76, %2
  %7 = load ptr, ptr %4, align 8, !tbaa !139
  %8 = icmp ne ptr %7, null
  br i1 %8, label %12, label %9

9:                                                ; preds = %6
  %10 = load ptr, ptr %5, align 8, !tbaa !139
  %11 = icmp ne ptr %10, null
  br label %12

12:                                               ; preds = %9, %6
  %13 = phi i1 [ true, %6 ], [ %11, %9 ]
  br i1 %13, label %14, label %83

14:                                               ; preds = %12
  %15 = load ptr, ptr %4, align 8, !tbaa !139
  %16 = icmp eq ptr %15, null
  br i1 %16, label %20, label %17

17:                                               ; preds = %14
  %18 = load ptr, ptr %5, align 8, !tbaa !139
  %19 = icmp eq ptr %18, null
  br i1 %19, label %20, label %21

20:                                               ; preds = %17, %14
  store i32 -1, ptr %3, align 4
  br label %84

21:                                               ; preds = %17
  %22 = load ptr, ptr %4, align 8, !tbaa !139
  %23 = getelementptr inbounds nuw %struct.mbedtls_asn1_named_data, ptr %22, i32 0, i32 0
  %24 = getelementptr inbounds nuw %struct.mbedtls_asn1_buf, ptr %23, i32 0, i32 0
  %25 = load i32, ptr %24, align 8, !tbaa !170
  %26 = load ptr, ptr %5, align 8, !tbaa !139
  %27 = getelementptr inbounds nuw %struct.mbedtls_asn1_named_data, ptr %26, i32 0, i32 0
  %28 = getelementptr inbounds nuw %struct.mbedtls_asn1_buf, ptr %27, i32 0, i32 0
  %29 = load i32, ptr %28, align 8, !tbaa !170
  %30 = icmp ne i32 %25, %29
  br i1 %30, label %56, label %31

31:                                               ; preds = %21
  %32 = load ptr, ptr %4, align 8, !tbaa !139
  %33 = getelementptr inbounds nuw %struct.mbedtls_asn1_named_data, ptr %32, i32 0, i32 0
  %34 = getelementptr inbounds nuw %struct.mbedtls_asn1_buf, ptr %33, i32 0, i32 1
  %35 = load i64, ptr %34, align 8, !tbaa !140
  %36 = load ptr, ptr %5, align 8, !tbaa !139
  %37 = getelementptr inbounds nuw %struct.mbedtls_asn1_named_data, ptr %36, i32 0, i32 0
  %38 = getelementptr inbounds nuw %struct.mbedtls_asn1_buf, ptr %37, i32 0, i32 1
  %39 = load i64, ptr %38, align 8, !tbaa !140
  %40 = icmp ne i64 %35, %39
  br i1 %40, label %56, label %41

41:                                               ; preds = %31
  %42 = load ptr, ptr %4, align 8, !tbaa !139
  %43 = getelementptr inbounds nuw %struct.mbedtls_asn1_named_data, ptr %42, i32 0, i32 0
  %44 = getelementptr inbounds nuw %struct.mbedtls_asn1_buf, ptr %43, i32 0, i32 2
  %45 = load ptr, ptr %44, align 8, !tbaa !141
  %46 = load ptr, ptr %5, align 8, !tbaa !139
  %47 = getelementptr inbounds nuw %struct.mbedtls_asn1_named_data, ptr %46, i32 0, i32 0
  %48 = getelementptr inbounds nuw %struct.mbedtls_asn1_buf, ptr %47, i32 0, i32 2
  %49 = load ptr, ptr %48, align 8, !tbaa !141
  %50 = load ptr, ptr %5, align 8, !tbaa !139
  %51 = getelementptr inbounds nuw %struct.mbedtls_asn1_named_data, ptr %50, i32 0, i32 0
  %52 = getelementptr inbounds nuw %struct.mbedtls_asn1_buf, ptr %51, i32 0, i32 1
  %53 = load i64, ptr %52, align 8, !tbaa !140
  %54 = call i32 @memcmp(ptr noundef %45, ptr noundef %49, i64 noundef %53) #12
  %55 = icmp ne i32 %54, 0
  br i1 %55, label %56, label %57

56:                                               ; preds = %41, %31, %21
  store i32 -1, ptr %3, align 4
  br label %84

57:                                               ; preds = %41
  %58 = load ptr, ptr %4, align 8, !tbaa !139
  %59 = getelementptr inbounds nuw %struct.mbedtls_asn1_named_data, ptr %58, i32 0, i32 1
  %60 = load ptr, ptr %5, align 8, !tbaa !139
  %61 = getelementptr inbounds nuw %struct.mbedtls_asn1_named_data, ptr %60, i32 0, i32 1
  %62 = call i32 @x509_string_cmp(ptr noundef %59, ptr noundef %61)
  %63 = icmp ne i32 %62, 0
  br i1 %63, label %64, label %65

64:                                               ; preds = %57
  store i32 -1, ptr %3, align 4
  br label %84

65:                                               ; preds = %57
  %66 = load ptr, ptr %4, align 8, !tbaa !139
  %67 = getelementptr inbounds nuw %struct.mbedtls_asn1_named_data, ptr %66, i32 0, i32 3
  %68 = load i8, ptr %67, align 8, !tbaa !171
  %69 = zext i8 %68 to i32
  %70 = load ptr, ptr %5, align 8, !tbaa !139
  %71 = getelementptr inbounds nuw %struct.mbedtls_asn1_named_data, ptr %70, i32 0, i32 3
  %72 = load i8, ptr %71, align 8, !tbaa !171
  %73 = zext i8 %72 to i32
  %74 = icmp ne i32 %69, %73
  br i1 %74, label %75, label %76

75:                                               ; preds = %65
  store i32 -1, ptr %3, align 4
  br label %84

76:                                               ; preds = %65
  %77 = load ptr, ptr %4, align 8, !tbaa !139
  %78 = getelementptr inbounds nuw %struct.mbedtls_asn1_named_data, ptr %77, i32 0, i32 2
  %79 = load ptr, ptr %78, align 8, !tbaa !142
  store ptr %79, ptr %4, align 8, !tbaa !139
  %80 = load ptr, ptr %5, align 8, !tbaa !139
  %81 = getelementptr inbounds nuw %struct.mbedtls_asn1_named_data, ptr %80, i32 0, i32 2
  %82 = load ptr, ptr %81, align 8, !tbaa !142
  store ptr %82, ptr %5, align 8, !tbaa !139
  br label %6, !llvm.loop !172

83:                                               ; preds = %12
  store i32 0, ptr %3, align 4
  br label %84

84:                                               ; preds = %83, %75, %64, %56, %20
  %85 = load i32, ptr %3, align 4
  ret i32 %85
}