; Function Attrs: nofree nounwind memory(read, inaccessiblemem: none) uwtable
define internal fastcc range(i32 -1, 1) i32 @x509_name_cmp(ptr noundef readonly %0, ptr noundef readonly %1) unnamed_addr #9 {
  %3 = icmp ne ptr %0, null
  %4 = icmp ne ptr %1, null
  %5 = or i1 %3, %4
  br i1 %5, label %.lr.ph, label %x509_string_cmp.exit.thread

.lr.ph:                                           ; preds = %2, %69
  %.029 = phi ptr [ %73, %69 ], [ %1, %2 ]
  %.01828 = phi ptr [ %71, %69 ], [ %0, %2 ]
  %6 = icmp eq ptr %.01828, null
  %7 = icmp eq ptr %.029, null
  %or.cond = select i1 %6, i1 true, i1 %7
  br i1 %or.cond, label %x509_string_cmp.exit.thread, label %8

8:                                                ; preds = %.lr.ph
  %9 = load i32, ptr %.01828, align 8, !tbaa !118
  %10 = load i32, ptr %.029, align 8, !tbaa !118
  %.not = icmp eq i32 %9, %10
  br i1 %.not, label %11, label %x509_string_cmp.exit.thread

11:                                               ; preds = %8
  %12 = getelementptr inbounds nuw i8, ptr %.01828, i64 8
  %13 = load i64, ptr %12, align 8, !tbaa !98
  %14 = getelementptr inbounds nuw i8, ptr %.029, i64 8
  %15 = load i64, ptr %14, align 8, !tbaa !98
  %.not21 = icmp eq i64 %13, %15
  br i1 %.not21, label %16, label %x509_string_cmp.exit.thread

16:                                               ; preds = %11
  %17 = getelementptr inbounds nuw i8, ptr %.01828, i64 16
  %18 = load ptr, ptr %17, align 8, !tbaa !99
  %19 = getelementptr inbounds nuw i8, ptr %.029, i64 16
  %20 = load ptr, ptr %19, align 8, !tbaa !99
  %bcmp = tail call i32 @bcmp(ptr %18, ptr %20, i64 %13)
  %.not22 = icmp eq i32 %bcmp, 0
  br i1 %.not22, label %21, label %x509_string_cmp.exit.thread

21:                                               ; preds = %16
  %22 = getelementptr inbounds nuw i8, ptr %.01828, i64 24
  %23 = getelementptr inbounds nuw i8, ptr %.029, i64 24
  %24 = load i32, ptr %22, align 8, !tbaa !42
  %25 = load i32, ptr %23, align 8, !tbaa !42
  %26 = icmp eq i32 %24, %25
  br i1 %26, label %27, label %39

27:                                               ; preds = %21
  %28 = getelementptr inbounds nuw i8, ptr %.01828, i64 32
  %29 = load i64, ptr %28, align 8, !tbaa !39
  %30 = getelementptr inbounds nuw i8, ptr %.029, i64 32
  %31 = load i64, ptr %30, align 8, !tbaa !39
  %32 = icmp eq i64 %29, %31
  br i1 %32, label %33, label %39

33:                                               ; preds = %27
  %34 = getelementptr inbounds nuw i8, ptr %.01828, i64 40
  %35 = load ptr, ptr %34, align 8, !tbaa !41
  %36 = getelementptr inbounds nuw i8, ptr %.029, i64 40
  %37 = load ptr, ptr %36, align 8, !tbaa !41
  %bcmp.i = tail call i32 @bcmp(ptr %35, ptr %37, i64 %29)
  %38 = icmp eq i32 %bcmp.i, 0
  br i1 %38, label %x509_string_cmp.exit, label %39

39:                                               ; preds = %33, %27, %21
  switch i32 %24, label %x509_string_cmp.exit.thread [
    i32 12, label %40
    i32 19, label %40
  ]

40:                                               ; preds = %39, %39
  switch i32 %25, label %x509_string_cmp.exit.thread [
    i32 12, label %41
    i32 19, label %41
  ]

41:                                               ; preds = %40, %40
  %42 = getelementptr inbounds nuw i8, ptr %.01828, i64 32
  %43 = load i64, ptr %42, align 8, !tbaa !39
  %44 = getelementptr inbounds nuw i8, ptr %.029, i64 32
  %45 = load i64, ptr %44, align 8, !tbaa !39
  %46 = icmp eq i64 %43, %45
  br i1 %46, label %47, label %x509_string_cmp.exit.thread

47:                                               ; preds = %41
  %48 = getelementptr inbounds nuw i8, ptr %.01828, i64 40
  %49 = load ptr, ptr %48, align 8, !tbaa !41
  %50 = getelementptr inbounds nuw i8, ptr %.029, i64 40
  %51 = load ptr, ptr %50, align 8, !tbaa !41
  %.not.i.i = icmp eq i64 %43, 0
  br i1 %.not.i.i, label %x509_string_cmp.exit, label %.lr.ph.i.i

.lr.ph.i.i:                                       ; preds = %47, %63
  %.01925.i.i = phi i64 [ %64, %63 ], [ 0, %47 ]
  %52 = getelementptr inbounds nuw i8, ptr %49, i64 %.01925.i.i
  %53 = load i8, ptr %52, align 1, !tbaa !43
  %54 = getelementptr inbounds nuw i8, ptr %51, i64 %.01925.i.i
  %55 = load i8, ptr %54, align 1, !tbaa !43
  %56 = icmp eq i8 %53, %55
  br i1 %56, label %63, label %57

57:                                               ; preds = %.lr.ph.i.i
  %58 = xor i8 %55, %53
  %59 = icmp eq i8 %58, 32
  br i1 %59, label %60, label %x509_string_cmp.exit.thread

60:                                               ; preds = %57
  %61 = and i8 %53, -33
  %62 = add i8 %61, -65
  %or.cond24.i.i = icmp ult i8 %62, 26
  br i1 %or.cond24.i.i, label %63, label %x509_string_cmp.exit.thread

63:                                               ; preds = %60, %.lr.ph.i.i
  %64 = add nuw i64 %.01925.i.i, 1
  %exitcond.not.i.i = icmp eq i64 %64, %43
  br i1 %exitcond.not.i.i, label %x509_string_cmp.exit, label %.lr.ph.i.i, !llvm.loop !119

x509_string_cmp.exit:                             ; preds = %63, %47, %33
  %65 = getelementptr inbounds nuw i8, ptr %.01828, i64 56
  %66 = load i8, ptr %65, align 8, !tbaa !120
  %67 = getelementptr inbounds nuw i8, ptr %.029, i64 56
  %68 = load i8, ptr %67, align 8, !tbaa !120
  %.not24 = icmp eq i8 %66, %68
  br i1 %.not24, label %69, label %x509_string_cmp.exit.thread

69:                                               ; preds = %x509_string_cmp.exit
  %70 = getelementptr inbounds nuw i8, ptr %.01828, i64 48
  %71 = load ptr, ptr %70, align 8, !tbaa !100
  %72 = getelementptr inbounds nuw i8, ptr %.029, i64 48
  %73 = load ptr, ptr %72, align 8, !tbaa !100
  %74 = icmp ne ptr %71, null
  %75 = icmp ne ptr %73, null
  %76 = select i1 %74, i1 true, i1 %75
  br i1 %76, label %.lr.ph, label %x509_string_cmp.exit.thread, !llvm.loop !121

x509_string_cmp.exit.thread:                      ; preds = %.lr.ph, %16, %11, %8, %x509_string_cmp.exit, %69, %40, %39, %41, %60, %57, %2
  %.019 = phi i32 [ 0, %2 ], [ -1, %57 ], [ -1, %60 ], [ -1, %.lr.ph ], [ -1, %16 ], [ -1, %11 ], [ -1, %8 ], [ -1, %x509_string_cmp.exit ], [ 0, %69 ], [ -1, %40 ], [ -1, %39 ], [ -1, %41 ]
  ret i32 %.019
}